target datalayout = "e-m:e-p270:32:32-p271:32:32-p272:64:64-i64:64-i128:128-f80:128-n8:16:32:64-S128"
target triple = "x86_64-pc-linux-gnu"

%struct.AVRational = type { i32, i32 }
%struct.AVFormatContext = type { ptr, ptr, ptr, ptr, ptr, i32, i32, ptr, i32, ptr, i32, ptr, ptr, i64, i64, i64, i32, i32, i32, i64, i64, ptr, i32, i32, ptr, i32, i32, i32, i32, ptr, i64, i32, i32, %struct.AVIOInterruptCB, i32, i32, i32, i32, i64, i32, i32, i32, i32, i32, i32, i32, i32, i32, i32, i32, i32, i64, i32, i32, i32, i32, i32, ptr, ptr, ptr, ptr, i32, ptr, ptr, ptr, ptr, i32, ptr, ptr, i64, ptr, ptr, ptr, i64 }
%struct.AVIOInterruptCB = type { ptr, ptr }
%struct.LavfiContext = type { ptr, ptr, ptr, ptr, ptr, ptr, ptr, ptr, ptr, ptr, i32, %struct.AVPacket }
%struct.AVPacket = type { ptr, i64, i64, ptr, i32, i32, i32, ptr, i32, i64, i64, ptr, ptr, %struct.AVRational }
%struct.AVStream = type { ptr, i32, i32, ptr, ptr, %struct.AVRational, i64, i64, i64, i32, i32, %struct.AVRational, ptr, %struct.AVRational, %struct.AVPacket, i32, %struct.AVRational, i32 }
%struct.AVCodecParameters = type { i32, i32, i32, ptr, i32, ptr, i32, i32, i64, i32, i32, i32, i32, i32, i32, %struct.AVRational, %struct.AVRational, i32, i32, i32, i32, i32, i32, i32, %struct.AVChannelLayout, i32, i32, i32, i32, i32, i32 }
%struct.AVChannelLayout = type { i32, i32, %union.anon.0, ptr }
%union.anon.0 = type { i64 }

; Function Attrs: nounwind uwtable
define internal i32 @create_subcc_streams(ptr noundef %0) #1 {
  %2 = alloca i32, align 4
  %3 = alloca ptr, align 8
  %4 = alloca ptr, align 8
  %5 = alloca ptr, align 8
  %6 = alloca i32, align 4
  %7 = alloca i32, align 4
  %8 = alloca ptr, align 8
  %9 = alloca i32, align 4
  store ptr %0, ptr %3, align 8, !tbaa !4
  call void @llvm.lifetime.start.p0(i64 8, ptr %4) #8
  %10 = load ptr, ptr %3, align 8, !tbaa !4
  %11 = getelementptr inbounds nuw %struct.AVFormatContext, ptr %10, i32 0, i32 3
  %12 = load ptr, ptr %11, align 8, !tbaa !9
  store ptr %12, ptr %4, align 8, !tbaa !26
  call void @llvm.lifetime.start.p0(i64 8, ptr %5) #8
  call void @llvm.lifetime.start.p0(i64 4, ptr %6) #8
  call void @llvm.lifetime.start.p0(i64 4, ptr %7) #8
  call void @llvm.lifetime.start.p0(i64 8, ptr %8) #8
  store i32 0, ptr %6, align 4, !tbaa !29
  br label %13

13:                                               ; preds = %86, %1
  %14 = load i32, ptr %6, align 4, !tbaa !29
  %15 = load ptr, ptr %4, align 8, !tbaa !26
  %16 = getelementptr inbounds nuw %struct.LavfiContext, ptr %15, i32 0, i32 10
  %17 = load i32, ptr %16, align 8, !tbaa !52
  %18 = icmp slt i32 %14, %17
  br i1 %18, label %19, label %89

19:                                               ; preds = %13
  %20 = load ptr, ptr %4, align 8, !tbaa !26
  %21 = getelementptr inbounds nuw %struct.LavfiContext, ptr %20, i32 0, i32 8
  %22 = load ptr, ptr %21, align 8, !tbaa !55
  %23 = load i32, ptr %6, align 4, !tbaa !29
  %24 = sext i32 %23 to i64
  %25 = getelementptr inbounds i32, ptr %22, i64 %24
  %26 = load i32, ptr %25, align 4, !tbaa !29
  store i32 %26, ptr %7, align 4, !tbaa !29
  %27 = load ptr, ptr %4, align 8, !tbaa !26
  %28 = getelementptr inbounds nuw %struct.LavfiContext, ptr %27, i32 0, i32 9
  %29 = load ptr, ptr %28, align 8, !tbaa !56
  %30 = load i32, ptr %7, align 4, !tbaa !29
  %31 = sext i32 %30 to i64
  %32 = getelementptr inbounds i32, ptr %29, i64 %31
  %33 = load i32, ptr %32, align 4, !tbaa !29
  %34 = icmp ne i32 %33, 0
  br i1 %34, label %35, label %78

35:                                               ; preds = %19
  %36 = load ptr, ptr %3, align 8, !tbaa !4
  %37 = getelementptr inbounds nuw %struct.AVFormatContext, ptr %36, i32 0, i32 6
  %38 = load i32, ptr %37, align 4, !tbaa !126
  %39 = load ptr, ptr %4, align 8, !tbaa !26
  %40 = getelementptr inbounds nuw %struct.LavfiContext, ptr %39, i32 0, i32 9
  %41 = load ptr, ptr %40, align 8, !tbaa !56
  %42 = load i32, ptr %7, align 4, !tbaa !29
  %43 = sext i32 %42 to i64
  %44 = getelementptr inbounds i32, ptr %41, i64 %43
  store i32 %38, ptr %44, align 4, !tbaa !29
  %45 = load ptr, ptr %3, align 8, !tbaa !4
  %46 = call ptr @avformat_new_stream(ptr noundef %45, ptr noundef null)
  store ptr %46, ptr %5, align 8, !tbaa !61
  %47 = icmp ne ptr %46, null
  br i1 %47, label %49, label %48

48:                                               ; preds = %35
  store i32 -12, ptr %2, align 4
  store i32 1, ptr %9, align 4
  br label %90

49:                                               ; preds = %35
  %50 = load ptr, ptr %5, align 8, !tbaa !61
  %51 = getelementptr inbounds nuw %struct.AVStream, ptr %50, i32 0, i32 3
  %52 = load ptr, ptr %51, align 8, !tbaa !83
  %53 = getelementptr inbounds nuw %struct.AVCodecParameters, ptr %52, i32 0, i32 1
  store i32 94218, ptr %53, align 4, !tbaa !90
  %54 = load ptr, ptr %5, align 8, !tbaa !61
  %55 = getelementptr inbounds nuw %struct.AVStream, ptr %54, i32 0, i32 3
  %56 = load ptr, ptr %55, align 8, !tbaa !83
  %57 = getelementptr inbounds nuw %struct.AVCodecParameters, ptr %56, i32 0, i32 0
  store i32 3, ptr %57, align 8, !tbaa !87
  %58 = load ptr, ptr %3, align 8, !tbaa !4
  %59 = getelementptr inbounds nuw %struct.AVFormatContext, ptr %58, i32 0, i32 7
  %60 = load ptr, ptr %59, align 8, !tbaa !82
  %61 = load i32, ptr %6, align 4, !tbaa !29
  %62 = sext i32 %61 to i64
  %63 = getelementptr inbounds ptr, ptr %60, i64 %62
  %64 = load ptr, ptr %63, align 8, !tbaa !61
  %65 = getelementptr inbounds nuw %struct.AVStream, ptr %64, i32 0, i32 5
  store ptr %65, ptr %8, align 8, !tbaa !127
  %66 = load ptr, ptr %8, align 8, !tbaa !127
  %67 = getelementptr inbounds nuw %struct.AVRational, ptr %66, i32 0, i32 0
  %68 = load i32, ptr %67, align 4, !tbaa !85
  %69 = load ptr, ptr %5, align 8, !tbaa !61
  %70 = getelementptr inbounds nuw %struct.AVStream, ptr %69, i32 0, i32 5
  %71 = getelementptr inbounds nuw %struct.AVRational, ptr %70, i32 0, i32 0
  store i32 %68, ptr %71, align 8, !tbaa !129
  %72 = load ptr, ptr %8, align 8, !tbaa !127
  %73 = getelementptr inbounds nuw %struct.AVRational, ptr %72, i32 0, i32 1
  %74 = load i32, ptr %73, align 4, !tbaa !86
  %75 = load ptr, ptr %5, align 8, !tbaa !61
  %76 = getelementptr inbounds nuw %struct.AVStream, ptr %75, i32 0, i32 5
  %77 = getelementptr inbounds nuw %struct.AVRational, ptr %76, i32 0, i32 1
  store i32 %74, ptr %77, align 4, !tbaa !130
  br label %85

78:                                               ; preds = %19
  %79 = load ptr, ptr %4, align 8, !tbaa !26
  %80 = getelementptr inbounds nuw %struct.LavfiContext, ptr %79, i32 0, i32 9
  %81 = load ptr, ptr %80, align 8, !tbaa !56
  %82 = load i32, ptr %7, align 4, !tbaa !29
  %83 = sext i32 %82 to i64
  %84 = getelementptr inbounds i32, ptr %81, i64 %83
  store i32 -1, ptr %84, align 4, !tbaa !29
  br label %85

85:                                               ; preds = %78, %49
  br label %86

86:                                               ; preds = %85
  %87 = load i32, ptr %6, align 4, !tbaa !29
  %88 = add nsw i32 %87, 1
  store i32 %88, ptr %6, align 4, !tbaa !29
  br label %13, !llvm.loop !131

89:                                               ; preds = %13
  store i32 0, ptr %2, align 4
  store i32 1, ptr %9, align 4
  br label %90

90:                                               ; preds = %89, %48
  call void @llvm.lifetime.end.p0(i64 8, ptr %8) #8
  call void @llvm.lifetime.end.p0(i64 4, ptr %7) #8
  call void @llvm.lifetime.end.p0(i64 4, ptr %6) #8
  call void @llvm.lifetime.end.p0(i64 8, ptr %5) #8
  call void @llvm.lifetime.end.p0(i64 8, ptr %4) #8
  %91 = load i32, ptr %2, align 4
  ret i32 %91
}