; Function Attrs: nounwind uwtable
define internal fastcc range(i32 -12, 1) i32 @create_subcc_streams(ptr noundef %0) unnamed_addr #1 {
  %2 = getelementptr inbounds nuw i8, ptr %0, i64 24
  %3 = load ptr, ptr %2, align 8, !tbaa !4
  %4 = getelementptr inbounds nuw i8, ptr %0, i64 44
  %5 = getelementptr inbounds nuw i8, ptr %3, i64 80
  %6 = load i32, ptr %5, align 8, !tbaa !43
  %7 = icmp sgt i32 %6, 0
  br i1 %7, label %.lr.ph, label %._crit_edge

.lr.ph:                                           ; preds = %1
  %8 = getelementptr inbounds nuw i8, ptr %3, i64 64
  %9 = getelementptr inbounds nuw i8, ptr %3, i64 72
  %10 = getelementptr inbounds nuw i8, ptr %0, i64 48
  br label %11

11:                                               ; preds = %.lr.ph, %36
  %indvars.iv = phi i64 [ 0, %.lr.ph ], [ %indvars.iv.next, %36 ]
  %12 = load ptr, ptr %8, align 8, !tbaa !46
  %13 = getelementptr inbounds nuw i32, ptr %12, i64 %indvars.iv
  %14 = load i32, ptr %13, align 4, !tbaa !48
  %15 = load ptr, ptr %9, align 8, !tbaa !47
  %16 = sext i32 %14 to i64
  %17 = getelementptr inbounds i32, ptr %15, i64 %16
  %18 = load i32, ptr %17, align 4, !tbaa !48
  %.not = icmp eq i32 %18, 0
  br i1 %.not, label %35, label %19

19:                                               ; preds = %11
  %20 = load i32, ptr %4, align 4, !tbaa !112
  store i32 %20, ptr %17, align 4, !tbaa !48
  %21 = tail call ptr @avformat_new_stream(ptr noundef %0, ptr noundef null) #10
  %.not24 = icmp eq ptr %21, null
  br i1 %.not24, label %._crit_edge, label %22

22:                                               ; preds = %19
  %23 = getelementptr inbounds nuw i8, ptr %21, i64 16
  %24 = load ptr, ptr %23, align 8, !tbaa !76
  %25 = getelementptr inbounds nuw i8, ptr %24, i64 4
  store i32 94218, ptr %25, align 4, !tbaa !80
  store i32 3, ptr %24, align 8, !tbaa !77
  %26 = load ptr, ptr %10, align 8, !tbaa !73
  %27 = getelementptr inbounds nuw ptr, ptr %26, i64 %indvars.iv
  %28 = load ptr, ptr %27, align 8, !tbaa !74
  %29 = getelementptr inbounds nuw i8, ptr %28, i64 32
  %30 = load i32, ptr %29, align 4, !tbaa !113
  %31 = getelementptr inbounds nuw i8, ptr %21, i64 32
  store i32 %30, ptr %31, align 8, !tbaa !114
  %32 = getelementptr inbounds nuw i8, ptr %28, i64 36
  %33 = load i32, ptr %32, align 4, !tbaa !115
  %34 = getelementptr inbounds nuw i8, ptr %21, i64 36
  store i32 %33, ptr %34, align 4, !tbaa !116
  br label %36

35:                                               ; preds = %11
  store i32 -1, ptr %17, align 4, !tbaa !48
  br label %36

36:                                               ; preds = %22, %35
  %indvars.iv.next = add nuw nsw i64 %indvars.iv, 1
  %37 = load i32, ptr %5, align 8, !tbaa !43
  %38 = sext i32 %37 to i64
  %39 = icmp slt i64 %indvars.iv.next, %38
  br i1 %39, label %11, label %._crit_edge, !llvm.loop !117

._crit_edge:                                      ; preds = %19, %36, %1
  %.0 = phi i32 [ 0, %1 ], [ 0, %36 ], [ -12, %19 ]
  ret i32 %.0
}